; Function Attrs: nounwind uwtable
define dso_local i64 @gtsvector_decompress(ptr noundef readonly captures(none) %0) local_unnamed_addr #4 {
  %2 = getelementptr inbounds nuw i8, ptr %0, i64 32
  %3 = load i64, ptr %2, align 8
  %4 = inttoptr i64 %3 to ptr
  %5 = load i64, ptr %4, align 8
  %6 = inttoptr i64 %5 to ptr
  %7 = tail call ptr @pg_detoast_datum(ptr noundef %6) #13
  %8 = load i64, ptr %4, align 8
  %9 = inttoptr i64 %8 to ptr
  %.not = icmp eq ptr %7, %9
  br i1 %.not, label %24, label %10

10:                                               ; preds = %1
  %11 = tail call ptr @palloc(i64 noundef 32) #13
  %12 = ptrtoint ptr %7 to i64
  store i64 %12, ptr %11, align 8
  %13 = getelementptr inbounds nuw i8, ptr %4, i64 8
  %14 = load ptr, ptr %13, align 8
  %15 = getelementptr inbounds nuw i8, ptr %11, i64 8
  store ptr %14, ptr %15, align 8
  %16 = getelementptr inbounds nuw i8, ptr %4, i64 16
  %17 = load ptr, ptr %16, align 8
  %18 = getelementptr inbounds nuw i8, ptr %11, i64 16
  store ptr %17, ptr %18, align 8
  %19 = getelementptr inbounds nuw i8, ptr %4, i64 24
  %20 = load i16, ptr %19, align 8
  %21 = getelementptr inbounds nuw i8, ptr %11, i64 24
  store i16 %20, ptr %21, align 8
  %22 = getelementptr inbounds nuw i8, ptr %11, i64 26
  store i8 0, ptr %22, align 2
  %23 = ptrtoint ptr %11 to i64
  br label %24

24:                                               ; preds = %1, %10
  %.0 = phi i64 [ %23, %10 ], [ %3, %1 ]
  ret i64 %.0
}